target datalayout = "e-m:e-p270:32:32-p271:32:32-p272:64:64-i64:64-i128:128-f80:128-n8:16:32:64-S128"
target triple = "x86_64-pc-linux-gnu"

%struct._clusterNode = type { i64, [40 x i8], [40 x i8], i32, i64, [2048 x i8], ptr, i32, i32, i32, ptr, ptr, i64, i64, i64, i64, i64, i64, i64, i64, i64, [46 x i8], ptr, ptr, i32, i32, i32, ptr, ptr, ptr }

; Function Attrs: nounwind uwtable
define dso_local i32 @bitmapTestBit(ptr noundef %0, i32 noundef %1) #0 {
  %3 = alloca ptr, align 8
  %4 = alloca i32, align 4
  %5 = alloca i64, align 8
  %6 = alloca i32, align 4
  store ptr %0, ptr %3, align 8, !tbaa !52
  store i32 %1, ptr %4, align 4, !tbaa !46
  call void @llvm.lifetime.start.p0(i64 8, ptr %5) #16
  %7 = load i32, ptr %4, align 4, !tbaa !46
  %8 = sdiv i32 %7, 8
  %9 = sext i32 %8 to i64
  store i64 %9, ptr %5, align 8, !tbaa !65
  call void @llvm.lifetime.start.p0(i64 4, ptr %6) #16
  %10 = load i32, ptr %4, align 4, !tbaa !46
  %11 = and i32 %10, 7
  store i32 %11, ptr %6, align 4, !tbaa !46
  %12 = load ptr, ptr %3, align 8, !tbaa !52
  %13 = load i64, ptr %5, align 8, !tbaa !65
  %14 = getelementptr inbounds i8, ptr %12, i64 %13
  %15 = load i8, ptr %14, align 1, !tbaa !54
  %16 = zext i8 %15 to i32
  %17 = load i32, ptr %6, align 4, !tbaa !46
  %18 = shl i32 1, %17
  %19 = and i32 %16, %18
  %20 = icmp ne i32 %19, 0
  %21 = zext i1 %20 to i32
  call void @llvm.lifetime.end.p0(i64 4, ptr %6) #16
  call void @llvm.lifetime.end.p0(i64 8, ptr %5) #16
  ret i32 %21
}

; Function Attrs: nounwind uwtable
define dso_local i32 @clusterNodeCoversSlot(ptr noundef %0, i32 noundef %1) #0 {
  %3 = alloca ptr, align 8
  %4 = alloca i32, align 4
  store ptr %0, ptr %3, align 8, !tbaa !5
  store i32 %1, ptr %4, align 4, !tbaa !46
  %5 = load ptr, ptr %3, align 8, !tbaa !5
  %6 = getelementptr inbounds nuw %struct._clusterNode, ptr %5, i32 0, i32 5
  %7 = getelementptr inbounds [2048 x i8], ptr %6, i64 0, i64 0
  %8 = load i32, ptr %4, align 4, !tbaa !46
  %9 = call i32 @bitmapTestBit(ptr noundef %7, i32 noundef %8)
  ret i32 %9
}