; Function Attrs: mustprogress nofree norecurse nosync nounwind willreturn memory(argmem: read) uwtable
define dso_local range(i32 0, 2) i32 @clusterNodeCoversSlot(ptr noundef readonly captures(none) %0, i32 noundef %1) local_unnamed_addr #1 {
  %3 = getelementptr inbounds nuw i8, ptr %0, i64 104
  %4 = sdiv i32 %1, 8
  %5 = sext i32 %4 to i64
  %6 = and i32 %1, 7
  %7 = getelementptr inbounds i8, ptr %3, i64 %5
  %8 = load i8, ptr %7, align 1, !tbaa !50
  %9 = zext i8 %8 to i32
  %10 = lshr i32 %9, %6
  %11 = and i32 %10, 1
  ret i32 %11
}